target datalayout = "e-m:e-p270:32:32-p271:32:32-p272:64:64-i64:64-i128:128-f80:128-n8:16:32:64-S128"
target triple = "x86_64-pc-linux-gnu"

%struct.GetBitContext = type { ptr, ptr, i32, i32, i32 }
%struct.CodedBitstreamContext = type { ptr, ptr, ptr, ptr, i32, i32, i32, ptr, ptr, ptr, ptr, i64 }

@.str.8 = private unnamed_addr constant [30 x i8] c"Assertion %s failed at %s:%d\0A\00", align 1
@.str.10 = private unnamed_addr constant [21 x i8] c"libavcodec/cbs_vp9.c\00", align 1
@.str.12 = private unnamed_addr constant [31 x i8] c"start_position <= end_position\00", align 1
@.str.82 = private unnamed_addr constant [53 x i8] c"range_min <= range_max && range_max - range_min < 32\00", align 1
@.str.83 = private unnamed_addr constant [49 x i8] c"Invalid increment value at %s: bitstream ended.\0A\00", align 1

; Function Attrs: inlinehint nounwind uwtable
define internal i32 @get_bits_count(ptr noundef %0) #3 {
  %2 = alloca ptr, align 8
  store ptr %0, ptr %2, align 8, !tbaa !62
  %3 = load ptr, ptr %2, align 8, !tbaa !62
  %4 = getelementptr inbounds nuw %struct.GetBitContext, ptr %3, i32 0, i32 2
  %5 = load i32, ptr %4, align 8, !tbaa !69
  ret i32 %5
}

; Function Attrs: inlinehint nounwind uwtable
define internal i32 @get_bits1(ptr noundef %0) #3 {
  %2 = alloca ptr, align 8
  %3 = alloca i32, align 4
  %4 = alloca i8, align 1
  store ptr %0, ptr %2, align 8, !tbaa !62
  call void @llvm.lifetime.start.p0(i64 4, ptr %3) #8
  %5 = load ptr, ptr %2, align 8, !tbaa !62
  %6 = getelementptr inbounds nuw %struct.GetBitContext, ptr %5, i32 0, i32 2
  %7 = load i32, ptr %6, align 8, !tbaa !69
  store i32 %7, ptr %3, align 4, !tbaa !11
  call void @llvm.lifetime.start.p0(i64 1, ptr %4) #8
  %8 = load ptr, ptr %2, align 8, !tbaa !62
  %9 = getelementptr inbounds nuw %struct.GetBitContext, ptr %8, i32 0, i32 0
  %10 = load ptr, ptr %9, align 8, !tbaa !64
  %11 = load i32, ptr %3, align 4, !tbaa !11
  %12 = lshr i32 %11, 3
  %13 = zext i32 %12 to i64
  %14 = getelementptr inbounds nuw i8, ptr %10, i64 %13
  %15 = load i8, ptr %14, align 1, !tbaa !20
  store i8 %15, ptr %4, align 1, !tbaa !20
  %16 = load i32, ptr %3, align 4, !tbaa !11
  %17 = and i32 %16, 7
  %18 = load i8, ptr %4, align 1, !tbaa !20
  %19 = zext i8 %18 to i32
  %20 = shl i32 %19, %17
  %21 = trunc i32 %20 to i8
  store i8 %21, ptr %4, align 1, !tbaa !20
  %22 = load i8, ptr %4, align 1, !tbaa !20
  %23 = zext i8 %22 to i32
  %24 = ashr i32 %23, 7
  %25 = trunc i32 %24 to i8
  store i8 %25, ptr %4, align 1, !tbaa !20
  %26 = load ptr, ptr %2, align 8, !tbaa !62
  %27 = getelementptr inbounds nuw %struct.GetBitContext, ptr %26, i32 0, i32 2
  %28 = load i32, ptr %27, align 8, !tbaa !69
  %29 = load ptr, ptr %2, align 8, !tbaa !62
  %30 = getelementptr inbounds nuw %struct.GetBitContext, ptr %29, i32 0, i32 4
  %31 = load i32, ptr %30, align 8, !tbaa !67
  %32 = icmp slt i32 %28, %31
  br i1 %32, label %33, label %36

33:                                               ; preds = %1
  %34 = load i32, ptr %3, align 4, !tbaa !11
  %35 = add i32 %34, 1
  store i32 %35, ptr %3, align 4, !tbaa !11
  br label %36

36:                                               ; preds = %33, %1
  %37 = load i32, ptr %3, align 4, !tbaa !11
  %38 = load ptr, ptr %2, align 8, !tbaa !62
  %39 = getelementptr inbounds nuw %struct.GetBitContext, ptr %38, i32 0, i32 2
  store i32 %37, ptr %39, align 8, !tbaa !69
  %40 = load i8, ptr %4, align 1, !tbaa !20
  %41 = zext i8 %40 to i32
  call void @llvm.lifetime.end.p0(i64 1, ptr %4) #8
  call void @llvm.lifetime.end.p0(i64 4, ptr %3) #8
  ret i32 %41
}

; Function Attrs: inlinehint nounwind uwtable
define internal i32 @get_bits_left(ptr noundef %0) #3 {
  %2 = alloca ptr, align 8
  store ptr %0, ptr %2, align 8, !tbaa !62
  %3 = load ptr, ptr %2, align 8, !tbaa !62
  %4 = getelementptr inbounds nuw %struct.GetBitContext, ptr %3, i32 0, i32 3
  %5 = load i32, ptr %4, align 4, !tbaa !66
  %6 = load ptr, ptr %2, align 8, !tbaa !62
  %7 = call i32 @get_bits_count(ptr noundef %6)
  %8 = sub nsw i32 %5, %7
  ret i32 %8
}

; Function Attrs: nounwind uwtable
define internal i32 @cbs_vp9_read_increment(ptr noundef %0, ptr noundef %1, i32 noundef %2, i32 noundef %3, ptr noundef %4, ptr noundef %5) #0 {
  %7 = alloca i32, align 4
  %8 = alloca ptr, align 8
  %9 = alloca ptr, align 8
  %10 = alloca i32, align 4
  %11 = alloca i32, align 4
  %12 = alloca ptr, align 8
  %13 = alloca ptr, align 8
  %14 = alloca i32, align 4
  %15 = alloca %struct.GetBitContext, align 8
  %16 = alloca i32, align 4
  %17 = alloca ptr, align 8
  %18 = alloca i32, align 4
  %19 = alloca i32, align 4
  store ptr %0, ptr %8, align 8, !tbaa !4
  store ptr %1, ptr %9, align 8, !tbaa !62
  store i32 %2, ptr %10, align 4, !tbaa !11
  store i32 %3, ptr %11, align 4, !tbaa !11
  store ptr %4, ptr %12, align 8, !tbaa !57
  store ptr %5, ptr %13, align 8, !tbaa !73
  call void @llvm.lifetime.start.p0(i64 4, ptr %14) #8
  call void @llvm.lifetime.start.p0(i64 32, ptr %15) #8
  br label %20

20:                                               ; preds = %6
  %21 = load ptr, ptr %8, align 8, !tbaa !4
  %22 = getelementptr inbounds nuw %struct.CodedBitstreamContext, ptr %21, i32 0, i32 5
  %23 = load i32, ptr %22, align 4, !tbaa !74
  %24 = icmp ne i32 %23, 0
  br i1 %24, label %25, label %27

25:                                               ; preds = %20
  %26 = load ptr, ptr %9, align 8, !tbaa !62
  call void @llvm.memcpy.p0.p0.i64(ptr align 8 %15, ptr align 8 %26, i64 32, i1 false), !tbaa.struct !75
  br label %27

27:                                               ; preds = %25, %20
  br label %28

28:                                               ; preds = %27
  br label %29

29:                                               ; preds = %28
  br label %30

30:                                               ; preds = %29
  %31 = load i32, ptr %10, align 4, !tbaa !11
  %32 = load i32, ptr %11, align 4, !tbaa !11
  %33 = icmp ule i32 %31, %32
  br i1 %33, label %34, label %39

34:                                               ; preds = %30
  %35 = load i32, ptr %11, align 4, !tbaa !11
  %36 = load i32, ptr %10, align 4, !tbaa !11
  %37 = sub i32 %35, %36
  %38 = icmp ult i32 %37, 32
  br i1 %38, label %40, label %39

39:                                               ; preds = %34, %30
  call void (ptr, i32, ptr, ...) @av_log(ptr noundef null, i32 noundef 0, ptr noundef @.str.8, ptr noundef @.str.82, ptr noundef @.str.10, i32 noundef 83)
  call void @abort() #9
  unreachable

40:                                               ; preds = %34
  br label %41

41:                                               ; preds = %40
  br label %42

42:                                               ; preds = %41
  %43 = load i32, ptr %10, align 4, !tbaa !11
  store i32 %43, ptr %14, align 4, !tbaa !11
  br label %44

44:                                               ; preds = %65, %42
  %45 = load i32, ptr %14, align 4, !tbaa !11
  %46 = load i32, ptr %11, align 4, !tbaa !11
  %47 = icmp ult i32 %45, %46
  br i1 %47, label %48, label %66

48:                                               ; preds = %44
  %49 = load ptr, ptr %9, align 8, !tbaa !62
  %50 = call i32 @get_bits_left(ptr noundef %49)
  %51 = icmp slt i32 %50, 1
  br i1 %51, label %52, label %57

52:                                               ; preds = %48
  %53 = load ptr, ptr %8, align 8, !tbaa !4
  %54 = getelementptr inbounds nuw %struct.CodedBitstreamContext, ptr %53, i32 0, i32 0
  %55 = load ptr, ptr %54, align 8, !tbaa !24
  %56 = load ptr, ptr %12, align 8, !tbaa !57
  call void (ptr, i32, ptr, ...) @av_log(ptr noundef %55, i32 noundef 16, ptr noundef @.str.83, ptr noundef %56)
  store i32 -1094995529, ptr %7, align 4
  store i32 1, ptr %16, align 4
  br label %105

57:                                               ; preds = %48
  %58 = load ptr, ptr %9, align 8, !tbaa !62
  %59 = call i32 @get_bits1(ptr noundef %58)
  %60 = icmp ne i32 %59, 0
  br i1 %60, label %61, label %64

61:                                               ; preds = %57
  %62 = load i32, ptr %14, align 4, !tbaa !11
  %63 = add i32 %62, 1
  store i32 %63, ptr %14, align 4, !tbaa !11
  br label %65

64:                                               ; preds = %57
  br label %66

65:                                               ; preds = %61
  br label %44, !llvm.loop !156

66:                                               ; preds = %64, %44
  br label %67

67:                                               ; preds = %66
  call void @llvm.lifetime.start.p0(i64 8, ptr %17) #8
  store ptr null, ptr %17, align 8, !tbaa !73
  br label %68

68:                                               ; preds = %67
  %69 = load ptr, ptr %8, align 8, !tbaa !4
  %70 = getelementptr inbounds nuw %struct.CodedBitstreamContext, ptr %69, i32 0, i32 5
  %71 = load i32, ptr %70, align 4, !tbaa !74
  %72 = icmp ne i32 %71, 0
  br i1 %72, label %73, label %98

73:                                               ; preds = %68
  call void @llvm.lifetime.start.p0(i64 4, ptr %18) #8
  %74 = call i32 @get_bits_count(ptr noundef %15)
  store i32 %74, ptr %18, align 4, !tbaa !11
  call void @llvm.lifetime.start.p0(i64 4, ptr %19) #8
  %75 = load ptr, ptr %9, align 8, !tbaa !62
  %76 = call i32 @get_bits_count(ptr noundef %75)
  store i32 %76, ptr %19, align 4, !tbaa !11
  br label %77

77:                                               ; preds = %73
  %78 = load i32, ptr %18, align 4, !tbaa !11
  %79 = load i32, ptr %19, align 4, !tbaa !11
  %80 = icmp sle i32 %78, %79
  br i1 %80, label %82, label %81

81:                                               ; preds = %77
  call void (ptr, i32, ptr, ...) @av_log(ptr noundef null, i32 noundef 0, ptr noundef @.str.8, ptr noundef @.str.12, ptr noundef @.str.10, i32 noundef 97)
  call void @abort() #9
  unreachable

82:                                               ; preds = %77
  br label %83

83:                                               ; preds = %82
  br label %84

84:                                               ; preds = %83
  %85 = load ptr, ptr %8, align 8, !tbaa !4
  %86 = getelementptr inbounds nuw %struct.CodedBitstreamContext, ptr %85, i32 0, i32 8
  %87 = load ptr, ptr %86, align 8, !tbaa !77
  %88 = load ptr, ptr %8, align 8, !tbaa !4
  %89 = getelementptr inbounds nuw %struct.CodedBitstreamContext, ptr %88, i32 0, i32 7
  %90 = load ptr, ptr %89, align 8, !tbaa !78
  %91 = load i32, ptr %19, align 4, !tbaa !11
  %92 = load i32, ptr %18, align 4, !tbaa !11
  %93 = sub nsw i32 %91, %92
  %94 = load ptr, ptr %12, align 8, !tbaa !57
  %95 = load ptr, ptr %17, align 8, !tbaa !73
  %96 = load i32, ptr %14, align 4, !tbaa !11
  %97 = zext i32 %96 to i64
  call void %87(ptr noundef %90, ptr noundef %15, i32 noundef %93, ptr noundef %94, ptr noundef %95, i64 noundef %97)
  call void @llvm.lifetime.end.p0(i64 4, ptr %19) #8
  call void @llvm.lifetime.end.p0(i64 4, ptr %18) #8
  br label %98

98:                                               ; preds = %84, %68
  br label %99

99:                                               ; preds = %98
  br label %100

100:                                              ; preds = %99
  call void @llvm.lifetime.end.p0(i64 8, ptr %17) #8
  br label %101

101:                                              ; preds = %100
  br label %102

102:                                              ; preds = %101
  %103 = load i32, ptr %14, align 4, !tbaa !11
  %104 = load ptr, ptr %13, align 8, !tbaa !73
  store i32 %103, ptr %104, align 4, !tbaa !11
  store i32 0, ptr %7, align 4
  store i32 1, ptr %16, align 4
  br label %105

105:                                              ; preds = %102, %52
  call void @llvm.lifetime.end.p0(i64 32, ptr %15) #8
  call void @llvm.lifetime.end.p0(i64 4, ptr %14) #8
  %106 = load i32, ptr %7, align 4
  ret i32 %106
}